; Function Attrs: nounwind uwtable
define internal noalias ptr @rc2_dupctx(ptr noundef readonly captures(none) %0) #0 {
  %2 = tail call i32 @ossl_prov_is_running() #5
  %.not = icmp eq i32 %2, 0
  br i1 %.not, label %7, label %3

3:                                                ; preds = %1
  %4 = tail call noalias ptr @CRYPTO_malloc(i64 noundef 456, ptr noundef nonnull @.str, i32 noundef 52) #5
  %5 = icmp eq ptr %4, null
  br i1 %5, label %7, label %6

6:                                                ; preds = %3
  tail call void @llvm.memcpy.p0.p0.i64(ptr noundef nonnull align 8 dereferenceable(456) %4, ptr noundef nonnull align 8 dereferenceable(456) %0, i64 456, i1 false), !tbaa.struct !14
  br label %7

7:                                                ; preds = %3, %1, %6
  %.0 = phi ptr [ %4, %6 ], [ null, %1 ], [ null, %3 ]
  ret ptr %.0
}